; Function Attrs: mustprogress uwtable
define void @_Z27_gmx_sel_mempool_free_groupP17gmx_sel_mempool_tP15gmx_ana_index_t(ptr nocapture noundef %0, ptr nocapture noundef %1) local_unnamed_addr #0 {
  %3 = getelementptr inbounds i8, ptr %1, i64 8
  %4 = load ptr, ptr %3, align 8
  %5 = icmp eq ptr %4, null
  br i1 %5, label %_Z21_gmx_sel_mempool_freeP17gmx_sel_mempool_tPv.exit, label %6

6:                                                ; preds = %2
  %7 = getelementptr inbounds i8, ptr %0, i64 32
  %8 = load i32, ptr %7, align 8
  %9 = icmp sgt i32 %8, 0
  br i1 %9, label %10, label %18

10:                                               ; preds = %6
  %11 = getelementptr inbounds i8, ptr %0, i64 40
  %12 = load ptr, ptr %11, align 8
  %13 = zext nneg i32 %8 to i64
  %14 = getelementptr %struct.gmx_sel_mempool_block_t, ptr %12, i64 %13
  %15 = getelementptr i8, ptr %14, i64 -16
  %16 = load ptr, ptr %15, align 8
  %17 = icmp eq ptr %16, %4
  br i1 %17, label %19, label %18

18:                                               ; preds = %10, %6
  tail call void @_ZN3gmx8internal13assertHandlerEPKcS2_S2_S2_i(ptr noundef nonnull @.str.8, ptr noundef nonnull @.str.9, ptr noundef nonnull @"__PRETTY_FUNCTION__._ZZ21_gmx_sel_mempool_freeP17gmx_sel_mempool_tPvENK3$_0clEv", ptr noundef nonnull @.str.1, i32 noundef 178) #14
  unreachable

19:                                               ; preds = %10
  %20 = add nsw i32 %8, -1
  store i32 %20, ptr %7, align 8
  %21 = zext nneg i32 %20 to i64
  %22 = getelementptr inbounds %struct.gmx_sel_mempool_block_t, ptr %12, i64 %21, i32 1
  %23 = load i64, ptr %22, align 8
  %sext.i = shl i64 %23, 32
  %24 = ashr exact i64 %sext.i, 32
  %25 = load i64, ptr %0, align 8
  %26 = sub i64 %25, %24
  store i64 %26, ptr %0, align 8
  %27 = getelementptr inbounds i8, ptr %0, i64 16
  %28 = load ptr, ptr %27, align 8
  %.not.i = icmp eq ptr %28, null
  br i1 %.not.i, label %34, label %29

29:                                               ; preds = %19
  %30 = getelementptr inbounds i8, ptr %0, i64 24
  store ptr %4, ptr %30, align 8
  %31 = getelementptr inbounds i8, ptr %0, i64 8
  %32 = load i64, ptr %31, align 8
  %33 = add i64 %32, %24
  store i64 %33, ptr %31, align 8
  br label %_Z21_gmx_sel_mempool_freeP17gmx_sel_mempool_tPv.exit

34:                                               ; preds = %19
  tail call void @_Z9save_freePKcS0_iPv(ptr noundef nonnull @.str.7, ptr noundef nonnull @.str.1, i32 noundef 189, ptr noundef nonnull %4)
  br label %_Z21_gmx_sel_mempool_freeP17gmx_sel_mempool_tPv.exit

_Z21_gmx_sel_mempool_freeP17gmx_sel_mempool_tPv.exit: ; preds = %2, %29, %34
  store ptr null, ptr %3, align 8
  ret void
}